ARM GAS  C:\Users\donni\AppData\Local\Temp\ccmOdEDv.s 			page 1


   1              		.syntax unified
   2              		.cpu cortex-m4
   3              		.eabi_attribute 27, 1
   4              		.fpu fpv4-sp-d16
   5              		.eabi_attribute 20, 1
   6              		.eabi_attribute 21, 1
   7              		.eabi_attribute 23, 3
   8              		.eabi_attribute 24, 1
   9              		.eabi_attribute 25, 1
  10              		.eabi_attribute 26, 1
  11              		.eabi_attribute 30, 1
  12              		.eabi_attribute 34, 1
  13              		.eabi_attribute 18, 4
  14              		.thumb
  15              		.syntax unified
  16              		.file	"error.c"
  17              		.text
  18              	.Ltext0:
  19              		.cfi_sections	.debug_frame
  20              		.section	.text.writeToLog,"ax",%progbits
  21              		.align	2
  22              		.global	writeToLog
  23              		.thumb
  24              		.thumb_func
  25              		.type	writeToLog, %function
  26              	writeToLog:
  27              	.LFB137:
  28              		.file 1 "error.c"
   1:error.c       **** /*
   2:error.c       **** error.c
   3:error.c       **** 
   4:error.c       **** manages errors and writes log files
   5:error.c       **** 
   6:error.c       **** made by Donald Shannon
   7:error.c       **** for BLEdoor lock project
   8:error.c       **** */
   9:error.c       **** 
  10:error.c       **** #include <stdio.h>
  11:error.c       **** 
  12:error.c       **** #include "global.h"
  13:error.c       **** 
  14:error.c       **** // TODO doesnt work
  15:error.c       **** void writeToLog(char* message)
  16:error.c       **** {
  29              		.loc 1 16 0
  30              		.cfi_startproc
  31              		@ args = 0, pretend = 0, frame = 0
  32              		@ frame_needed = 0, uses_anonymous_args = 0
  33              	.LVL0:
  34 0000 08B5     		push	{r3, lr}
  35              		.cfi_def_cfa_offset 8
  36              		.cfi_offset 3, -8
  37              		.cfi_offset 14, -4
  17:error.c       ****     if(DEBUG_2) printf(message);
  38              		.loc 1 17 0
  39 0002 FFF7FEFF 		bl	printf
  40              	.LVL1:
ARM GAS  C:\Users\donni\AppData\Local\Temp\ccmOdEDv.s 			page 2


  41 0006 08BD     		pop	{r3, pc}
  42              		.cfi_endproc
  43              	.LFE137:
  44              		.size	writeToLog, .-writeToLog
  45              		.section	.text.throwError,"ax",%progbits
  46              		.align	2
  47              		.global	throwError
  48              		.thumb
  49              		.thumb_func
  50              		.type	throwError, %function
  51              	throwError:
  52              	.LFB138:
  18:error.c       ****     
  19:error.c       ****     // TODO: implement write to log file
  20:error.c       ****     
  21:error.c       **** }
  22:error.c       **** 
  23:error.c       **** // TODO doesnt work
  24:error.c       **** void throwError(char* error, uint32_t severe)
  25:error.c       **** {
  53              		.loc 1 25 0
  54              		.cfi_startproc
  55              		@ args = 0, pretend = 0, frame = 0
  56              		@ frame_needed = 0, uses_anonymous_args = 0
  57              	.LVL2:
  58 0000 08B5     		push	{r3, lr}
  59              		.cfi_def_cfa_offset 8
  60              		.cfi_offset 3, -8
  61              		.cfi_offset 14, -4
  26:error.c       ****     if (severe)
  62              		.loc 1 26 0
  63 0002 11B1     		cbz	r1, .L4
  27:error.c       ****     {
  28:error.c       ****         writeToLog(error);
  64              		.loc 1 28 0
  65 0004 FFF7FEFF 		bl	writeToLog
  66              	.LVL3:
  67              	.L5:
  68 0008 FEE7     		b	.L5
  69              	.LVL4:
  70              	.L4:
  29:error.c       ****         while(true)
  30:error.c       ****         {
  31:error.c       ****             // stalls program
  32:error.c       ****             ;;
  33:error.c       ****         }
  34:error.c       ****     }
  35:error.c       ****     else
  36:error.c       ****     {
  37:error.c       ****         writeToLog(error);
  71              		.loc 1 37 0
  72 000a FFF7FEFF 		bl	writeToLog
  73              	.LVL5:
  74 000e 08BD     		pop	{r3, pc}
  75              		.cfi_endproc
  76              	.LFE138:
  77              		.size	throwError, .-throwError
ARM GAS  C:\Users\donni\AppData\Local\Temp\ccmOdEDv.s 			page 3


  78              		.text
  79              	.Letext0:
  80              		.file 2 "c:\\program files (x86)\\cypress\\psoc creator\\4.4\\psoc creator\\import\\gnu\\arm\\5.4.
  81              		.file 3 "c:\\program files (x86)\\cypress\\psoc creator\\4.4\\psoc creator\\import\\gnu\\arm\\5.4.
  82              		.file 4 "Generated_Source\\PSoC6\\pdl\\cmsis/include/core_cm4.h"
  83              		.file 5 "c:\\program files (x86)\\cypress\\psoc creator\\4.4\\psoc creator\\import\\gnu\\arm\\5.4.